target datalayout = "e-m:e-p270:32:32-p271:32:32-p272:64:64-i64:64-i128:128-f80:128-n8:16:32:64-S128"
target triple = "x86_64-pc-linux-gnu"

; Function Attrs: nounwind uwtable
define internal i32 @zueci_chr_lte_cnt(ptr noundef %0, i32 noundef %1, i8 noundef zeroext %2) #0 {
  %4 = alloca ptr, align 8
  %5 = alloca i32, align 4
  %6 = alloca i8, align 1
  %7 = alloca i32, align 4
  %8 = alloca ptr, align 8
  %9 = alloca ptr, align 8
  store ptr %0, ptr %4, align 8
  store i32 %1, ptr %5, align 4
  store i8 %2, ptr %6, align 1
  store i32 0, ptr %7, align 4
  %10 = load ptr, ptr %4, align 8
  %11 = load i32, ptr %5, align 4
  %12 = sext i32 %11 to i64
  %13 = getelementptr inbounds i8, ptr %10, i64 %12
  store ptr %13, ptr %8, align 8
  %14 = load ptr, ptr %4, align 8
  store ptr %14, ptr %9, align 8
  br label %15

15:                                               ; preds = %30, %3
  %16 = load ptr, ptr %9, align 8
  %17 = load ptr, ptr %8, align 8
  %18 = icmp ult ptr %16, %17
  br i1 %18, label %19, label %31

19:                                               ; preds = %15
  %20 = load ptr, ptr %9, align 8
  %21 = getelementptr inbounds i8, ptr %20, i32 1
  store ptr %21, ptr %9, align 8
  %22 = load i8, ptr %20, align 1
  %23 = zext i8 %22 to i32
  %24 = load i8, ptr %6, align 1
  %25 = zext i8 %24 to i32
  %26 = icmp sle i32 %23, %25
  br i1 %26, label %27, label %30

27:                                               ; preds = %19
  %28 = load i32, ptr %7, align 4
  %29 = add nsw i32 %28, 1
  store i32 %29, ptr %7, align 4
  br label %30

30:                                               ; preds = %27, %19
  br label %15, !llvm.loop !19

31:                                               ; preds = %15
  %32 = load i32, ptr %7, align 4
  ret i32 %32
}

; Function Attrs: nounwind uwtable
define internal i32 @zueci_chr_cnt(ptr noundef %0, i32 noundef %1, i8 noundef zeroext %2) #0 {
  %4 = alloca ptr, align 8
  %5 = alloca i32, align 4
  %6 = alloca i8, align 1
  %7 = alloca i32, align 4
  %8 = alloca ptr, align 8
  %9 = alloca ptr, align 8
  store ptr %0, ptr %4, align 8
  store i32 %1, ptr %5, align 4
  store i8 %2, ptr %6, align 1
  store i32 0, ptr %7, align 4
  %10 = load ptr, ptr %4, align 8
  %11 = load i32, ptr %5, align 4
  %12 = sext i32 %11 to i64
  %13 = getelementptr inbounds i8, ptr %10, i64 %12
  store ptr %13, ptr %8, align 8
  %14 = load ptr, ptr %4, align 8
  store ptr %14, ptr %9, align 8
  br label %15

15:                                               ; preds = %30, %3
  %16 = load ptr, ptr %9, align 8
  %17 = load ptr, ptr %8, align 8
  %18 = icmp ult ptr %16, %17
  br i1 %18, label %19, label %31

19:                                               ; preds = %15
  %20 = load ptr, ptr %9, align 8
  %21 = getelementptr inbounds i8, ptr %20, i32 1
  store ptr %21, ptr %9, align 8
  %22 = load i8, ptr %20, align 1
  %23 = zext i8 %22 to i32
  %24 = load i8, ptr %6, align 1
  %25 = zext i8 %24 to i32
  %26 = icmp eq i32 %23, %25
  br i1 %26, label %27, label %30

27:                                               ; preds = %19
  %28 = load i32, ptr %7, align 4
  %29 = add nsw i32 %28, 1
  store i32 %29, ptr %7, align 4
  br label %30

30:                                               ; preds = %27, %19
  br label %15, !llvm.loop !18

31:                                               ; preds = %15
  %32 = load i32, ptr %7, align 4
  ret i32 %32
}

; Function Attrs: nounwind uwtable
define internal i32 @zueci_is_valid_eci(i32 noundef %0) #0 {
  %2 = alloca i32, align 4
  store i32 %0, ptr %2, align 4
  %3 = load i32, ptr %2, align 4
  %4 = icmp sle i32 %3, 35
  br i1 %4, label %5, label %14

5:                                                ; preds = %1
  %6 = load i32, ptr %2, align 4
  %7 = icmp sge i32 %6, 0
  br i1 %7, label %8, label %14

8:                                                ; preds = %5
  %9 = load i32, ptr %2, align 4
  %10 = icmp ne i32 %9, 14
  br i1 %10, label %11, label %14

11:                                               ; preds = %8
  %12 = load i32, ptr %2, align 4
  %13 = icmp ne i32 %12, 19
  br i1 %13, label %20, label %14

14:                                               ; preds = %11, %8, %5, %1
  %15 = load i32, ptr %2, align 4
  %16 = icmp eq i32 %15, 170
  br i1 %16, label %20, label %17

17:                                               ; preds = %14
  %18 = load i32, ptr %2, align 4
  %19 = icmp eq i32 %18, 899
  br label %20

20:                                               ; preds = %17, %14, %11
  %21 = phi i1 [ true, %14 ], [ true, %11 ], [ %19, %17 ]
  %22 = zext i1 %21 to i32
  ret i32 %22
}

; Function Attrs: nounwind uwtable
define i32 @zueci_dest_len_eci(i32 noundef %0, ptr noundef %1, i32 noundef %2, ptr noundef %3) #0 {
  %5 = alloca i32, align 4
  %6 = alloca i32, align 4
  %7 = alloca ptr, align 8
  %8 = alloca i32, align 4
  %9 = alloca ptr, align 8
  %10 = alloca i32, align 4
  store i32 %0, ptr %6, align 4
  store ptr %1, ptr %7, align 8
  store i32 %2, ptr %8, align 4
  store ptr %3, ptr %9, align 8
  %11 = load i32, ptr %8, align 4
  store i32 %11, ptr %10, align 4
  %12 = load i32, ptr %6, align 4
  %13 = call i32 @zueci_is_valid_eci(i32 noundef %12)
  %14 = icmp ne i32 %13, 0
  br i1 %14, label %16, label %15

15:                                               ; preds = %4
  store i32 7, ptr %5, align 4
  br label %71

16:                                               ; preds = %4
  %17 = load ptr, ptr %7, align 8
  %18 = icmp ne ptr %17, null
  br i1 %18, label %19, label %22

19:                                               ; preds = %16
  %20 = load ptr, ptr %9, align 8
  %21 = icmp ne ptr %20, null
  br i1 %21, label %23, label %22

22:                                               ; preds = %19, %16
  store i32 8, ptr %5, align 4
  br label %71

23:                                               ; preds = %19
  %24 = load i32, ptr %6, align 4
  %25 = icmp eq i32 %24, 20
  br i1 %25, label %26, label %32

26:                                               ; preds = %23
  %27 = load ptr, ptr %7, align 8
  %28 = load i32, ptr %8, align 4
  %29 = call i32 @zueci_chr_cnt(ptr noundef %27, i32 noundef %28, i8 noundef zeroext 92)
  %30 = load i32, ptr %10, align 4
  %31 = add nsw i32 %30, %29
  store i32 %31, ptr %10, align 4
  br label %68

32:                                               ; preds = %23
  %33 = load i32, ptr %6, align 4
  %34 = icmp eq i32 %33, 25
  br i1 %34, label %38, label %35

35:                                               ; preds = %32
  %36 = load i32, ptr %6, align 4
  %37 = icmp eq i32 %36, 33
  br i1 %37, label %38, label %44

38:                                               ; preds = %35, %32
  %39 = load ptr, ptr %7, align 8
  %40 = load i32, ptr %8, align 4
  %41 = call i32 @zueci_chr_lte_cnt(ptr noundef %39, i32 noundef %40, i8 noundef zeroext 127)
  %42 = load i32, ptr %10, align 4
  %43 = add nsw i32 %42, %41
  store i32 %43, ptr %10, align 4
  br label %67

44:                                               ; preds = %35
  %45 = load i32, ptr %6, align 4
  %46 = icmp eq i32 %45, 32
  br i1 %46, label %47, label %50

47:                                               ; preds = %44
  %48 = load i32, ptr %10, align 4
  %49 = mul nsw i32 %48, 2
  store i32 %49, ptr %10, align 4
  br label %66

50:                                               ; preds = %44
  %51 = load i32, ptr %6, align 4
  %52 = icmp eq i32 %51, 34
  br i1 %52, label %56, label %53

53:                                               ; preds = %50
  %54 = load i32, ptr %6, align 4
  %55 = icmp eq i32 %54, 35
  br i1 %55, label %56, label %65

56:                                               ; preds = %53, %50
  %57 = load ptr, ptr %7, align 8
  %58 = load i32, ptr %8, align 4
  %59 = call i32 @zueci_chr_lte_cnt(ptr noundef %57, i32 noundef %58, i8 noundef zeroext 127)
  %60 = mul nsw i32 %59, 2
  %61 = load i32, ptr %8, align 4
  %62 = add nsw i32 %60, %61
  %63 = load i32, ptr %10, align 4
  %64 = add nsw i32 %63, %62
  store i32 %64, ptr %10, align 4
  br label %65

65:                                               ; preds = %56, %53
  br label %66

66:                                               ; preds = %65, %47
  br label %67

67:                                               ; preds = %66, %38
  br label %68

68:                                               ; preds = %67, %26
  %69 = load i32, ptr %10, align 4
  %70 = load ptr, ptr %9, align 8
  store i32 %69, ptr %70, align 4
  store i32 0, ptr %5, align 4
  br label %71

71:                                               ; preds = %68, %22, %15
  %72 = load i32, ptr %5, align 4
  ret i32 %72
}