; Function Attrs: nofree norecurse nosync nounwind memory(read, argmem: readwrite, inaccessiblemem: none) uwtable
define noundef i32 @zueci_dest_len_eci(i32 noundef %0, ptr noundef readonly %1, i32 noundef %2, ptr noundef writeonly %3) local_unnamed_addr #5 {
  %or.cond.i = icmp ugt i32 %0, 35
  br i1 %or.cond.i, label %switch.early.test, label %switch.early.test47

switch.early.test47:                              ; preds = %4
  switch i32 %0, label %5 [
    i32 14, label %45
    i32 19, label %45
  ]

switch.early.test:                                ; preds = %4
  switch i32 %0, label %45 [
    i32 899, label %5
    i32 170, label %5
  ]

5:                                                ; preds = %switch.early.test47, %switch.early.test, %switch.early.test
  %6 = icmp ne ptr %1, null
  %7 = icmp ne ptr %3, null
  %or.cond = and i1 %6, %7
  br i1 %or.cond, label %8, label %45

8:                                                ; preds = %5
  switch i32 %0, label %31 [
    i32 20, label %9
    i32 33, label %19
    i32 25, label %19
    i32 32, label %29
  ]

9:                                                ; preds = %8
  %10 = sext i32 %2 to i64
  %11 = getelementptr inbounds i8, ptr %1, i64 %10
  %12 = icmp sgt i32 %2, 0
  br i1 %12, label %.lr.ph.i, label %zueci_chr_cnt.exit

.lr.ph.i:                                         ; preds = %9, %.lr.ph.i
  %.010.i = phi ptr [ %13, %.lr.ph.i ], [ %1, %9 ]
  %.089.i = phi i32 [ %spec.select.i, %.lr.ph.i ], [ 0, %9 ]
  %13 = getelementptr inbounds i8, ptr %.010.i, i64 1
  %14 = load i8, ptr %.010.i, align 1
  %15 = icmp eq i8 %14, 92
  %16 = zext i1 %15 to i32
  %spec.select.i = add nuw nsw i32 %.089.i, %16
  %17 = icmp ult ptr %13, %11
  br i1 %17, label %.lr.ph.i, label %zueci_chr_cnt.exit, !llvm.loop !19

zueci_chr_cnt.exit:                               ; preds = %.lr.ph.i, %9
  %.08.lcssa.i = phi i32 [ 0, %9 ], [ %spec.select.i, %.lr.ph.i ]
  %18 = add nsw i32 %.08.lcssa.i, %2
  br label %44

19:                                               ; preds = %8, %8
  %20 = sext i32 %2 to i64
  %21 = getelementptr inbounds i8, ptr %1, i64 %20
  %22 = icmp sgt i32 %2, 0
  br i1 %22, label %.lr.ph.i33, label %zueci_chr_lte_cnt.exit

.lr.ph.i33:                                       ; preds = %19, %.lr.ph.i33
  %.010.i34 = phi ptr [ %23, %.lr.ph.i33 ], [ %1, %19 ]
  %.089.i35 = phi i32 [ %spec.select.i36, %.lr.ph.i33 ], [ 0, %19 ]
  %23 = getelementptr inbounds i8, ptr %.010.i34, i64 1
  %24 = load i8, ptr %.010.i34, align 1
  %25 = icmp sgt i8 %24, -1
  %26 = zext i1 %25 to i32
  %spec.select.i36 = add nuw nsw i32 %.089.i35, %26
  %27 = icmp ult ptr %23, %21
  br i1 %27, label %.lr.ph.i33, label %zueci_chr_lte_cnt.exit, !llvm.loop !20

zueci_chr_lte_cnt.exit:                           ; preds = %.lr.ph.i33, %19
  %.08.lcssa.i32 = phi i32 [ 0, %19 ], [ %spec.select.i36, %.lr.ph.i33 ]
  %28 = add nsw i32 %.08.lcssa.i32, %2
  br label %44

29:                                               ; preds = %8
  %30 = shl nsw i32 %2, 1
  br label %44

31:                                               ; preds = %8
  %32 = and i32 %0, 958
  %or.cond5 = icmp eq i32 %32, 34
  br i1 %or.cond5, label %33, label %44

33:                                               ; preds = %31
  %34 = sext i32 %2 to i64
  %35 = getelementptr inbounds i8, ptr %1, i64 %34
  %36 = icmp sgt i32 %2, 0
  br i1 %36, label %.lr.ph.i38, label %zueci_chr_lte_cnt.exit42

.lr.ph.i38:                                       ; preds = %33, %.lr.ph.i38
  %.010.i39 = phi ptr [ %37, %.lr.ph.i38 ], [ %1, %33 ]
  %.089.i40 = phi i32 [ %spec.select.i41, %.lr.ph.i38 ], [ 0, %33 ]
  %37 = getelementptr inbounds i8, ptr %.010.i39, i64 1
  %38 = load i8, ptr %.010.i39, align 1
  %39 = icmp sgt i8 %38, -1
  %40 = zext i1 %39 to i32
  %spec.select.i41 = add nuw nsw i32 %.089.i40, %40
  %41 = icmp ult ptr %37, %35
  br i1 %41, label %.lr.ph.i38, label %zueci_chr_lte_cnt.exit42, !llvm.loop !20

zueci_chr_lte_cnt.exit42:                         ; preds = %.lr.ph.i38, %33
  %.08.lcssa.i37 = phi i32 [ 0, %33 ], [ %spec.select.i41, %.lr.ph.i38 ]
  %42 = add i32 %.08.lcssa.i37, %2
  %43 = shl i32 %42, 1
  br label %44

44:                                               ; preds = %zueci_chr_lte_cnt.exit, %zueci_chr_lte_cnt.exit42, %31, %29, %zueci_chr_cnt.exit
  %.0 = phi i32 [ %18, %zueci_chr_cnt.exit ], [ %28, %zueci_chr_lte_cnt.exit ], [ %30, %29 ], [ %43, %zueci_chr_lte_cnt.exit42 ], [ %2, %31 ]
  store i32 %.0, ptr %3, align 4
  br label %45

45:                                               ; preds = %switch.early.test47, %switch.early.test47, %switch.early.test, %5, %44
  %.028 = phi i32 [ 0, %44 ], [ 7, %switch.early.test ], [ 8, %5 ], [ 7, %switch.early.test47 ], [ 7, %switch.early.test47 ]
  ret i32 %.028
}